; Function Attrs: mustprogress uwtable
define void @fileset_dlg_begin_add_file(ptr noundef %0) local_unnamed_addr #0 {
  %.not = icmp eq ptr %0, null
  br i1 %.not, label %3, label %2

2:                                                ; preds = %1
  tail call void @_ZN13FileSetDialog12beginAddFileEv(ptr noundef nonnull align 8 dereferenceable(92) %0)
  br label %3

3:                                                ; preds = %2, %1
  ret void
}